; Function Attrs: mustprogress uwtable
define hidden void @_ZN4cvc58internal5proof17LfscNodeConverter20getSymbolInternalForENS0_12NodeTemplateILb1EEERKNSt7__cxx1112basic_stringIcSt11char_traitsIcESaIcEEEb(ptr noalias sret(%"class.cvc5::internal::NodeTemplate") align 8 %agg.result, ptr noundef nonnull align 8 dereferenceable(760) %this, ptr noundef nonnull %n, ptr noundef nonnull align 8 dereferenceable(32) %name, i1 noundef zeroext %useRawSym) local_unnamed_addr #3 align 2 personality ptr @__gxx_personality_v0 {
entry:
  %agg.tmp = alloca %"class.cvc5::internal::TypeNode", align 8
  %0 = load ptr, ptr %n, align 8
  %d_kind.i = getelementptr inbounds i8, ptr %0, i64 8
  %bf.load.i = load i16, ptr %d_kind.i, align 8
  %bf.clear.i = and i16 %bf.load.i, 1023
  %bf.cast.i = zext nneg i16 %bf.clear.i to i32
  call void @_ZNK4cvc58internal12NodeTemplateILb1EE7getTypeEb(ptr nonnull sret(%"class.cvc5::internal::TypeNode") align 8 %agg.tmp, ptr noundef nonnull align 8 dereferenceable(8) %n, i1 noundef zeroext false)
  invoke void @_ZN4cvc58internal5proof17LfscNodeConverter17getSymbolInternalENS0_4kind6Kind_tENS0_8TypeNodeERKNSt7__cxx1112basic_stringIcSt11char_traitsIcESaIcEEEb(ptr sret(%"class.cvc5::internal::NodeTemplate") align 8 %agg.result, ptr noundef nonnull align 8 dereferenceable(760) %this, i32 noundef %bf.cast.i, ptr noundef nonnull %agg.tmp, ptr noundef nonnull align 8 dereferenceable(32) %name, i1 noundef zeroext %useRawSym)
          to label %invoke.cont unwind label %lpad

invoke.cont:                                      ; preds = %entry
  %1 = load ptr, ptr %agg.tmp, align 8
  %bf.load.i.i = load i64, ptr %1, align 8
  %2 = and i64 %bf.load.i.i, 1152920405095219200
  %cmp.not.i.i = icmp eq i64 %2, 1152920405095219200
  br i1 %cmp.not.i.i, label %_ZN4cvc58internal8TypeNodeD2Ev.exit, label %if.then.i.i

if.then.i.i:                                      ; preds = %invoke.cont
  %bf.value.i.i = add i64 %bf.load.i.i, 1152920405095219200
  %bf.shl.i.i = and i64 %bf.value.i.i, 1152920405095219200
  %bf.clear7.i.i = and i64 %bf.load.i.i, -1152920405095219201
  %bf.set.i.i = or disjoint i64 %bf.shl.i.i, %bf.clear7.i.i
  store i64 %bf.set.i.i, ptr %1, align 8
  %cmp12.i.i = icmp eq i64 %bf.shl.i.i, 0
  br i1 %cmp12.i.i, label %if.then13.i.i, label %_ZN4cvc58internal8TypeNodeD2Ev.exit

if.then13.i.i:                                    ; preds = %if.then.i.i
  invoke void @_ZN4cvc58internal4expr9NodeValue15markForDeletionEv(ptr noundef nonnull align 8 dereferenceable(16) %1)
          to label %_ZN4cvc58internal8TypeNodeD2Ev.exit unwind label %terminate.lpad.i

terminate.lpad.i:                                 ; preds = %if.then13.i.i
  %3 = landingpad { ptr, i32 }
          catch ptr null
  %4 = extractvalue { ptr, i32 } %3, 0
  call void @__clang_call_terminate(ptr %4) #23
  unreachable

_ZN4cvc58internal8TypeNodeD2Ev.exit:              ; preds = %invoke.cont, %if.then.i.i, %if.then13.i.i
  ret void

lpad:                                             ; preds = %entry
  %5 = landingpad { ptr, i32 }
          cleanup
  call void @_ZN4cvc58internal8TypeNodeD2Ev(ptr noundef nonnull align 8 dereferenceable(8) %agg.tmp) #21
  resume { ptr, i32 } %5
}